; ModuleID = '31/1998.c'
source_filename = "31/1998.c"
target datalayout = "e-m:e-p270:32:32-p271:32:32-p272:64:64-i64:64-f80:128-n8:16:32:64-S128"
target triple = "x86_64-pc-linux-gnu"

%struct.student = type { [100 x i8], %struct.student* }

@.str = private unnamed_addr constant [4 x i8] c"%s\0A\00", align 1

; Function Attrs: noinline nounwind uwtable
define dso_local i32 @main() #0 {
  %1 = alloca i32, align 4
  %2 = alloca i32, align 4
  %3 = alloca %struct.student*, align 8
  %4 = alloca %struct.student*, align 8
  %5 = alloca %struct.student*, align 8
  store i32 0, i32* %1, align 4
  store i32 0, i32* %2, align 4
  %6 = call noalias i8* @malloc(i64 100) #3
  %7 = bitcast i8* %6 to %struct.student*
  store %struct.student* %7, %struct.student** %5, align 8
  store %struct.student* %7, %struct.student** %4, align 8
  %8 = load %struct.student*, %struct.student** %4, align 8
  %9 = getelementptr inbounds %struct.student, %struct.student* %8, i32 0, i32 0
  %10 = getelementptr inbounds [100 x i8], [100 x i8]* %9, i64 0, i64 0
  %11 = call i32 (i8*, ...) bitcast (i32 (...)* @gets to i32 (i8*, ...)*)(i8* %10)
  br label %12

12:                                               ; preds = %31, %0
  %13 = load %struct.student*, %struct.student** %4, align 8
  %14 = getelementptr inbounds %struct.student, %struct.student* %13, i32 0, i32 0
  %15 = getelementptr inbounds [100 x i8], [100 x i8]* %14, i64 0, i64 0
  %16 = load i8, i8* %15, align 8
  %17 = sext i8 %16 to i32
  %18 = icmp ne i32 %17, 101
  br i1 %18, label %19, label %39

19:                                               ; preds = %12
  %20 = load i32, i32* %2, align 4
  %21 = add nsw i32 %20, 1
  store i32 %21, i32* %2, align 4
  %22 = load i32, i32* %2, align 4
  %23 = icmp eq i32 %22, 1
  br i1 %23, label %24, label %27

24:                                               ; preds = %19
  %25 = load %struct.student*, %struct.student** %4, align 8
  %26 = getelementptr inbounds %struct.student, %struct.student* %25, i32 0, i32 1
  store %struct.student* null, %struct.student** %26, align 8
  br label %31

27:                                               ; preds = %19
  %28 = load %struct.student*, %struct.student** %5, align 8
  %29 = load %struct.student*, %struct.student** %4, align 8
  %30 = getelementptr inbounds %struct.student, %struct.student* %29, i32 0, i32 1
  store %struct.student* %28, %struct.student** %30, align 8
  br label %31

31:                                               ; preds = %27, %24
  %32 = load %struct.student*, %struct.student** %4, align 8
  store %struct.student* %32, %struct.student** %5, align 8
  %33 = call noalias i8* @malloc(i64 100) #3
  %34 = bitcast i8* %33 to %struct.student*
  store %struct.student* %34, %struct.student** %4, align 8
  %35 = load %struct.student*, %struct.student** %4, align 8
  %36 = getelementptr inbounds %struct.student, %struct.student* %35, i32 0, i32 0
  %37 = getelementptr inbounds [100 x i8], [100 x i8]* %36, i64 0, i64 0
  %38 = call i32 (i8*, ...) bitcast (i32 (...)* @gets to i32 (i8*, ...)*)(i8* %37)
  br label %12

39:                                               ; preds = %12
  %40 = load %struct.student*, %struct.student** %5, align 8
  store %struct.student* %40, %struct.student** %3, align 8
  br label %41

41:                                               ; preds = %49, %39
  %42 = load %struct.student*, %struct.student** %3, align 8
  %43 = getelementptr inbounds %struct.student, %struct.student* %42, i32 0, i32 0
  %44 = getelementptr inbounds [100 x i8], [100 x i8]* %43, i64 0, i64 0
  %45 = call i32 (i8*, ...) @printf(i8* getelementptr inbounds ([4 x i8], [4 x i8]* @.str, i64 0, i64 0), i8* %44)
  %46 = load %struct.student*, %struct.student** %3, align 8
  %47 = getelementptr inbounds %struct.student, %struct.student* %46, i32 0, i32 1
  %48 = load %struct.student*, %struct.student** %47, align 8
  store %struct.student* %48, %struct.student** %3, align 8
  br label %49

49:                                               ; preds = %41
  %50 = load %struct.student*, %struct.student** %3, align 8
  %51 = icmp ne %struct.student* %50, null
  br i1 %51, label %41, label %52

52:                                               ; preds = %49
  %53 = load i32, i32* %1, align 4
  ret i32 %53
}

; Function Attrs: nounwind
declare dso_local noalias i8* @malloc(i64) #1

declare dso_local i32 @gets(...) #2

declare dso_local i32 @printf(i8*, ...) #2


!llvm.module.flags = !{!0}
!llvm.ident = !{!1}

!0 = !{i32 1, !"wchar_size", i32 4}
!1 = !{!"clang version 10.0.0-4ubuntu1 "}
